; Function Attrs: nofree nounwind memory(read, inaccessiblemem: none) uwtable
define noundef ptr @phpdbg_get_color(ptr nocapture noundef readonly %0, i64 noundef %1) local_unnamed_addr #7 {
  br label %3

3:                                                ; preds = %2, %10
  %4 = phi ptr [ @.str.31, %2 ], [ %12, %10 ]
  %.012 = phi ptr [ @colors, %2 ], [ %11, %10 ]
  %5 = getelementptr inbounds i8, ptr %.012, i64 8
  %6 = load i64, ptr %5, align 8
  %7 = icmp eq i64 %6, %1
  br i1 %7, label %8, label %10

8:                                                ; preds = %3
  %bcmp = tail call i32 @bcmp(ptr %0, ptr nonnull %4, i64 %1)
  %9 = icmp eq i32 %bcmp, 0
  br i1 %9, label %.critedge, label %10

10:                                               ; preds = %8, %3
  %11 = getelementptr inbounds i8, ptr %.012, i64 32
  %12 = load ptr, ptr %11, align 8
  %.not = icmp eq ptr %12, null
  br i1 %.not, label %.critedge, label %3

.critedge:                                        ; preds = %10, %8
  %.09 = phi ptr [ %.012, %8 ], [ null, %10 ]
  ret ptr %.09
}